target datalayout = "e-m:e-p270:32:32-p271:32:32-p272:64:64-i64:64-i128:128-f80:128-n8:16:32:64-S128"
target triple = "x86_64-pc-linux-gnu"

@hf_hdfsdata_datalength = internal global i32 0, align 4
@hf_hdfsdata_inblockoffset = internal global i32 0, align 4
@hf_hdfsdata_seqnum = internal global i32 0, align 4
@hf_hdfsdata_last = internal global i32 0, align 4
@hf_hdfsdata_datalen = internal global i32 0, align 4
@hf_hdfsdata_crc32 = internal global i32 0, align 4

; Function Attrs: null_pointer_is_valid sspstrong uwtable
define internal void @dissect_read_response(ptr noundef %0, ptr noundef %1, i32 noundef %2) #0 {
  %4 = alloca ptr, align 8
  %5 = alloca ptr, align 8
  %6 = alloca i32, align 4
  %7 = alloca i32, align 4
  %8 = alloca i32, align 4
  %9 = alloca i32, align 4
  store ptr %0, ptr %4, align 8
  store ptr %1, ptr %5, align 8
  store i32 %2, ptr %6, align 4
  call void @llvm.lifetime.start.p0(i64 4, ptr %7) #4
  store i32 0, ptr %7, align 4
  call void @llvm.lifetime.start.p0(i64 4, ptr %8) #4
  %10 = load ptr, ptr %5, align 8
  %11 = load i32, ptr @hf_hdfsdata_datalength, align 4
  %12 = load ptr, ptr %4, align 8
  %13 = load i32, ptr %6, align 4
  %14 = call ptr @proto_tree_add_item(ptr noundef %10, i32 noundef %11, ptr noundef %12, i32 noundef %13, i32 noundef 4, i32 noundef 0)
  %15 = load i32, ptr %6, align 4
  %16 = add i32 %15, 4
  store i32 %16, ptr %6, align 4
  %17 = load ptr, ptr %5, align 8
  %18 = load i32, ptr @hf_hdfsdata_inblockoffset, align 4
  %19 = load ptr, ptr %4, align 8
  %20 = load i32, ptr %6, align 4
  %21 = call ptr @proto_tree_add_item(ptr noundef %17, i32 noundef %18, ptr noundef %19, i32 noundef %20, i32 noundef 8, i32 noundef 0)
  %22 = load i32, ptr %6, align 4
  %23 = add i32 %22, 8
  store i32 %23, ptr %6, align 4
  %24 = load ptr, ptr %5, align 8
  %25 = load i32, ptr @hf_hdfsdata_seqnum, align 4
  %26 = load ptr, ptr %4, align 8
  %27 = load i32, ptr %6, align 4
  %28 = call ptr @proto_tree_add_item(ptr noundef %24, i32 noundef %25, ptr noundef %26, i32 noundef %27, i32 noundef 8, i32 noundef 0)
  %29 = load i32, ptr %6, align 4
  %30 = add i32 %29, 8
  store i32 %30, ptr %6, align 4
  %31 = load ptr, ptr %5, align 8
  %32 = load i32, ptr @hf_hdfsdata_last, align 4
  %33 = load ptr, ptr %4, align 8
  %34 = load i32, ptr %6, align 4
  %35 = call ptr @proto_tree_add_item(ptr noundef %31, i32 noundef %32, ptr noundef %33, i32 noundef %34, i32 noundef 1, i32 noundef 0)
  %36 = load i32, ptr %6, align 4
  %37 = add i32 %36, 1
  store i32 %37, ptr %6, align 4
  %38 = load ptr, ptr %5, align 8
  %39 = load i32, ptr @hf_hdfsdata_datalen, align 4
  %40 = load ptr, ptr %4, align 8
  %41 = load i32, ptr %6, align 4
  %42 = call ptr @proto_tree_add_item(ptr noundef %38, i32 noundef %39, ptr noundef %40, i32 noundef %41, i32 noundef 4, i32 noundef 0)
  %43 = load i32, ptr %6, align 4
  %44 = add i32 %43, 4
  store i32 %44, ptr %6, align 4
  %45 = load ptr, ptr %4, align 8
  %46 = call i32 @tvb_get_ntohl(ptr noundef %45, i32 noundef 3)
  store i32 %46, ptr %8, align 4
  %47 = load i32, ptr %8, align 4
  %48 = icmp eq i32 %47, 0
  br i1 %48, label %49, label %50

49:                                               ; preds = %3
  store i32 1, ptr %9, align 4
  br label %79

50:                                               ; preds = %3
  %51 = load ptr, ptr %4, align 8
  %52 = call zeroext i8 @tvb_get_uint8(ptr noundef %51, i32 noundef 2)
  %53 = zext i8 %52 to i32
  %54 = icmp eq i32 %53, 1
  br i1 %54, label %55, label %72

55:                                               ; preds = %50
  %56 = load ptr, ptr %4, align 8
  %57 = load i32, ptr %6, align 4
  %58 = sub i32 %57, 4
  %59 = call i32 @tvb_get_ntohl(ptr noundef %56, i32 noundef %58)
  %60 = uitofp i32 %59 to double
  %61 = fmul double 8.000000e+00, %60
  %62 = load ptr, ptr %4, align 8
  %63 = load i32, ptr %6, align 4
  %64 = sub i32 %63, 8
  %65 = call i32 @tvb_get_ntohl(ptr noundef %62, i32 noundef %64)
  %66 = uitofp i32 %65 to double
  %67 = fmul double %61, %66
  %68 = load i32, ptr %8, align 4
  %69 = uitofp i32 %68 to double
  %70 = fdiv double %67, %69
  %71 = fptosi double %70 to i32
  store i32 %71, ptr %7, align 4
  br label %72

72:                                               ; preds = %55, %50
  %73 = load ptr, ptr %5, align 8
  %74 = load i32, ptr @hf_hdfsdata_crc32, align 4
  %75 = load ptr, ptr %4, align 8
  %76 = load i32, ptr %6, align 4
  %77 = load i32, ptr %7, align 4
  %78 = call ptr @proto_tree_add_item(ptr noundef %73, i32 noundef %74, ptr noundef %75, i32 noundef %76, i32 noundef %77, i32 noundef 0)
  store i32 0, ptr %9, align 4
  br label %79

79:                                               ; preds = %72, %49
  call void @llvm.lifetime.end.p0(i64 4, ptr %8) #4
  call void @llvm.lifetime.end.p0(i64 4, ptr %7) #4
  %80 = load i32, ptr %9, align 4
  switch i32 %80, label %82 [
    i32 0, label %81
    i32 1, label %81
  ]

81:                                               ; preds = %79, %79
  ret void

82:                                               ; preds = %79
  unreachable
}