; Function Attrs: null_pointer_is_valid sspstrong uwtable
define internal fastcc void @dissect_read_response(ptr noundef %0, ptr noundef %1, i32 noundef %2) unnamed_addr #0 {
  %4 = load i32, ptr @hf_hdfsdata_datalength, align 4
  %5 = tail call ptr @proto_tree_add_item(ptr noundef %1, i32 noundef %4, ptr noundef %0, i32 noundef %2, i32 noundef 4, i32 noundef 0)
  %6 = add i32 %2, 4
  %7 = load i32, ptr @hf_hdfsdata_inblockoffset, align 4
  %8 = tail call ptr @proto_tree_add_item(ptr noundef %1, i32 noundef %7, ptr noundef %0, i32 noundef %6, i32 noundef 8, i32 noundef 0)
  %9 = add i32 %2, 12
  %10 = load i32, ptr @hf_hdfsdata_seqnum, align 4
  %11 = tail call ptr @proto_tree_add_item(ptr noundef %1, i32 noundef %10, ptr noundef %0, i32 noundef %9, i32 noundef 8, i32 noundef 0)
  %12 = add i32 %2, 20
  %13 = load i32, ptr @hf_hdfsdata_last, align 4
  %14 = tail call ptr @proto_tree_add_item(ptr noundef %1, i32 noundef %13, ptr noundef %0, i32 noundef %12, i32 noundef 1, i32 noundef 0)
  %15 = add i32 %2, 21
  %16 = load i32, ptr @hf_hdfsdata_datalen, align 4
  %17 = tail call ptr @proto_tree_add_item(ptr noundef %1, i32 noundef %16, ptr noundef %0, i32 noundef %15, i32 noundef 4, i32 noundef 0)
  %18 = add i32 %2, 25
  %19 = tail call i32 @tvb_get_ntohl(ptr noundef %0, i32 noundef 3)
  %20 = icmp eq i32 %19, 0
  br i1 %20, label %38, label %21

21:                                               ; preds = %3
  %22 = tail call zeroext i8 @tvb_get_uint8(ptr noundef %0, i32 noundef 2)
  %23 = icmp eq i8 %22, 1
  br i1 %23, label %24, label %35

24:                                               ; preds = %21
  %25 = tail call i32 @tvb_get_ntohl(ptr noundef %0, i32 noundef %15)
  %26 = uitofp i32 %25 to double
  %27 = fmul double %26, 8.000000e+00
  %28 = add i32 %2, 17
  %29 = tail call i32 @tvb_get_ntohl(ptr noundef %0, i32 noundef %28)
  %30 = uitofp i32 %29 to double
  %31 = fmul double %27, %30
  %32 = uitofp i32 %19 to double
  %33 = fdiv double %31, %32
  %34 = fptosi double %33 to i32
  br label %35

35:                                               ; preds = %24, %21
  %.0 = phi i32 [ %34, %24 ], [ 0, %21 ]
  %36 = load i32, ptr @hf_hdfsdata_crc32, align 4
  %37 = tail call ptr @proto_tree_add_item(ptr noundef %1, i32 noundef %36, ptr noundef %0, i32 noundef %18, i32 noundef %.0, i32 noundef 0)
  br label %38

38:                                               ; preds = %3, %35
  ret void
}